; Function Attrs: mustprogress uwtable
define void @_ZN6icu_7712RegexCompile8appendOpEi(ptr noundef nonnull readonly align 8 captures(none) dereferenceable(512) %0, i32 noundef %1) local_unnamed_addr #1 align 2 {
  %3 = alloca i32, align 4
  %4 = getelementptr inbounds nuw i8, ptr %0, i64 8
  %5 = load ptr, ptr %4, align 8, !tbaa !18
  %6 = load i32, ptr %5, align 4, !tbaa !13
  %7 = icmp slt i32 %6, 1
  br i1 %7, label %8, label %_ZN6icu_7712RegexCompile5errorE10UErrorCode.exit

8:                                                ; preds = %2
  %9 = getelementptr inbounds nuw i8, ptr %0, i64 16
  %10 = load ptr, ptr %9, align 8, !tbaa !33
  %11 = getelementptr inbounds nuw i8, ptr %10, i64 32
  %12 = load ptr, ptr %11, align 8, !tbaa !79
  %13 = sext i32 %1 to i64
  %14 = getelementptr inbounds nuw i8, ptr %12, i64 8
  %15 = load i32, ptr %14, align 8, !tbaa !80
  %16 = icmp slt i32 %15, -1
  %17 = getelementptr inbounds nuw i8, ptr %12, i64 12
  %18 = load i32, ptr %17, align 4
  %.not.i.i = icmp sle i32 %18, %15
  %or.cond.i.i = select i1 %16, i1 true, i1 %.not.i.i
  br i1 %or.cond.i.i, label %_ZN6icu_779UVector6414ensureCapacityEiR10UErrorCode.exit.i, label %_ZN6icu_779UVector6414ensureCapacityEiR10UErrorCode.exit.thread.i

_ZN6icu_779UVector6414ensureCapacityEiR10UErrorCode.exit.i: ; preds = %8
  %19 = add nsw i32 %15, 1
  %20 = tail call noundef signext i8 @_ZN6icu_779UVector6414expandCapacityEiR10UErrorCode(ptr noundef nonnull align 8 dereferenceable(32) %12, i32 noundef %19, ptr noundef nonnull align 4 dereferenceable(4) %5)
  %.not.i = icmp eq i8 %20, 0
  br i1 %.not.i, label %_ZN6icu_779UVector6410addElementElR10UErrorCode.exit, label %_ZN6icu_779UVector6414ensureCapacityEiR10UErrorCode.exit._ZN6icu_779UVector6414ensureCapacityEiR10UErrorCode.exit.thread_crit_edge.i

_ZN6icu_779UVector6414ensureCapacityEiR10UErrorCode.exit._ZN6icu_779UVector6414ensureCapacityEiR10UErrorCode.exit.thread_crit_edge.i: ; preds = %_ZN6icu_779UVector6414ensureCapacityEiR10UErrorCode.exit.i
  %.pre.i = load i32, ptr %14, align 8, !tbaa !80
  br label %_ZN6icu_779UVector6414ensureCapacityEiR10UErrorCode.exit.thread.i

_ZN6icu_779UVector6414ensureCapacityEiR10UErrorCode.exit.thread.i: ; preds = %_ZN6icu_779UVector6414ensureCapacityEiR10UErrorCode.exit._ZN6icu_779UVector6414ensureCapacityEiR10UErrorCode.exit.thread_crit_edge.i, %8
  %21 = phi i32 [ %.pre.i, %_ZN6icu_779UVector6414ensureCapacityEiR10UErrorCode.exit._ZN6icu_779UVector6414ensureCapacityEiR10UErrorCode.exit.thread_crit_edge.i ], [ %15, %8 ]
  %22 = getelementptr inbounds nuw i8, ptr %12, i64 24
  %23 = load ptr, ptr %22, align 8, !tbaa !115
  %24 = sext i32 %21 to i64
  %25 = getelementptr inbounds i64, ptr %23, i64 %24
  store i64 %13, ptr %25, align 8, !tbaa !116
  %26 = add nsw i32 %21, 1
  store i32 %26, ptr %14, align 8, !tbaa !80
  br label %_ZN6icu_779UVector6410addElementElR10UErrorCode.exit

_ZN6icu_779UVector6410addElementElR10UErrorCode.exit: ; preds = %_ZN6icu_779UVector6414ensureCapacityEiR10UErrorCode.exit.i, %_ZN6icu_779UVector6414ensureCapacityEiR10UErrorCode.exit.thread.i
  %27 = load ptr, ptr %9, align 8, !tbaa !33
  %28 = getelementptr inbounds nuw i8, ptr %27, i64 32
  %29 = load ptr, ptr %28, align 8, !tbaa !79
  %30 = getelementptr inbounds nuw i8, ptr %29, i64 8
  %31 = load i32, ptr %30, align 8, !tbaa !80
  %32 = icmp sgt i32 %31, 16777200
  br i1 %32, label %33, label %_ZN6icu_7712RegexCompile5errorE10UErrorCode.exit

33:                                               ; preds = %_ZN6icu_779UVector6410addElementElR10UErrorCode.exit
  %34 = load ptr, ptr %4, align 8, !tbaa !18
  %35 = load i32, ptr %34, align 4, !tbaa !13
  %36 = icmp sgt i32 %35, 0
  br i1 %36, label %_ZN6icu_7712RegexCompile5errorE10UErrorCode.exit, label %37

37:                                               ; preds = %33
  store i32 66324, ptr %34, align 4, !tbaa !13
  %38 = getelementptr inbounds nuw i8, ptr %0, i64 48
  %39 = load i64, ptr %38, align 8, !tbaa !37
  %40 = icmp sgt i64 %39, 2147483647
  br i1 %40, label %41, label %44

41:                                               ; preds = %37
  %42 = getelementptr inbounds nuw i8, ptr %0, i64 24
  %43 = load ptr, ptr %42, align 8, !tbaa !58
  store i32 0, ptr %43, align 4, !tbaa !73
  br label %52

44:                                               ; preds = %37
  %45 = getelementptr inbounds nuw i8, ptr %0, i64 56
  %46 = load i64, ptr %45, align 8, !tbaa !38
  %47 = icmp sgt i64 %46, 2147483647
  %48 = trunc i64 %39 to i32
  %49 = getelementptr inbounds nuw i8, ptr %0, i64 24
  %50 = load ptr, ptr %49, align 8, !tbaa !58
  store i32 %48, ptr %50, align 4, !tbaa !73
  %51 = trunc i64 %46 to i32
  %spec.select.i = select i1 %47, i32 -1, i32 %51
  br label %52

52:                                               ; preds = %44, %41
  %.sink4.i = phi ptr [ %43, %41 ], [ %50, %44 ]
  %.sink.i = phi i32 [ -1, %41 ], [ %spec.select.i, %44 ]
  %53 = getelementptr inbounds nuw i8, ptr %.sink4.i, i64 4
  store i32 %.sink.i, ptr %53, align 4, !tbaa !75
  call void @llvm.lifetime.start.p0(i64 4, ptr nonnull %3) #15
  store i32 0, ptr %3, align 4, !tbaa !13
  %54 = getelementptr inbounds nuw i8, ptr %0, i64 24
  %55 = getelementptr inbounds nuw i8, ptr %.sink4.i, i64 8
  tail call void @llvm.memset.p0.i64(ptr noundef nonnull align 4 dereferenceable(32) %55, i8 0, i64 32, i1 false)
  %56 = load ptr, ptr %54, align 8, !tbaa !58
  %57 = getelementptr inbounds nuw i8, ptr %56, i64 40
  tail call void @llvm.memset.p0.i64(ptr noundef nonnull align 4 dereferenceable(32) %57, i8 0, i64 32, i1 false)
  %58 = load ptr, ptr %9, align 8, !tbaa !33
  %59 = getelementptr inbounds nuw i8, ptr %58, i64 8
  %60 = load ptr, ptr %59, align 8, !tbaa !62
  %61 = getelementptr inbounds nuw i8, ptr %0, i64 32
  %62 = load i64, ptr %61, align 8, !tbaa !34
  %63 = add nsw i64 %62, -15
  %64 = load ptr, ptr %54, align 8, !tbaa !58
  %65 = getelementptr inbounds nuw i8, ptr %64, i64 8
  %66 = call i32 @utext_extract_77(ptr noundef %60, i64 noundef %63, i64 noundef %62, ptr noundef nonnull %65, i32 noundef 16, ptr noundef nonnull %3)
  %67 = load ptr, ptr %9, align 8, !tbaa !33
  %68 = getelementptr inbounds nuw i8, ptr %67, i64 8
  %69 = load ptr, ptr %68, align 8, !tbaa !62
  %70 = load i64, ptr %61, align 8, !tbaa !34
  %71 = add nsw i64 %70, 15
  %72 = load ptr, ptr %54, align 8, !tbaa !58
  %73 = getelementptr inbounds nuw i8, ptr %72, i64 40
  %74 = call i32 @utext_extract_77(ptr noundef %69, i64 noundef %70, i64 noundef %71, ptr noundef nonnull %73, i32 noundef 16, ptr noundef nonnull %3)
  call void @llvm.lifetime.end.p0(i64 4, ptr nonnull %3) #15
  br label %_ZN6icu_7712RegexCompile5errorE10UErrorCode.exit

_ZN6icu_7712RegexCompile5errorE10UErrorCode.exit: ; preds = %33, %52, %2, %_ZN6icu_779UVector6410addElementElR10UErrorCode.exit
  ret void
}